target datalayout = "e-m:e-p270:32:32-p271:32:32-p272:64:64-i64:64-i128:128-f80:128-n8:16:32:64-S128"
target triple = "x86_64-pc-linux-gnu"

%"class.icu_77::RelativeDateTimeCacheData" = type { %"class.icu_77::SharedObject", [3 x [15 x [6 x %"class.icu_77::UnicodeString"]]], [3 x [15 x [2 x [8 x ptr]]]], %"class.icu_77::UnicodeString", [3 x i32], ptr }
%"class.icu_77::SharedObject" = type { %"class.icu_77::UObject", i32, %"struct.std::atomic", ptr }
%"class.icu_77::UObject" = type { ptr }
%"struct.std::atomic" = type { %"struct.std::__atomic_base" }
%"struct.std::__atomic_base" = type { i32 }
%"class.icu_77::UnicodeString" = type { %"class.icu_77::Replaceable", %"union.icu_77::UnicodeString::StackBufferOrFields" }
%"class.icu_77::Replaceable" = type { %"class.icu_77::UObject" }
%"union.icu_77::UnicodeString::StackBufferOrFields" = type { %struct.anon.0, [32 x i8] }
%struct.anon.0 = type { i16, i32, i32, ptr }

; Function Attrs: mustprogress nounwind uwtable
define void @_ZN6icu_7725RelativeDateTimeCacheDataD2Ev(ptr noundef nonnull align 8 dereferenceable(23152) %0) unnamed_addr #0 align 2 {
  %2 = alloca ptr, align 8
  %3 = alloca i32, align 4
  %4 = alloca i32, align 4
  %5 = alloca i32, align 4
  %6 = alloca i32, align 4
  store ptr %0, ptr %2, align 8, !tbaa !23
  %7 = load ptr, ptr %2, align 8
  store ptr getelementptr inbounds inrange(-16, 24) ({ [5 x ptr] }, ptr @_ZTVN6icu_7725RelativeDateTimeCacheDataE, i32 0, i32 0, i32 2), ptr %7, align 8, !tbaa !25
  call void @llvm.lifetime.start.p0(i64 4, ptr %3) #12
  store i32 0, ptr %3, align 4, !tbaa !14
  br label %8

8:                                                ; preds = %61, %1
  %9 = load i32, ptr %3, align 4, !tbaa !14
  %10 = icmp slt i32 %9, 3
  br i1 %10, label %12, label %11

11:                                               ; preds = %8
  store i32 2, ptr %4, align 4
  call void @llvm.lifetime.end.p0(i64 4, ptr %3) #12
  br label %64

12:                                               ; preds = %8
  call void @llvm.lifetime.start.p0(i64 4, ptr %5) #12
  store i32 0, ptr %5, align 4, !tbaa !14
  br label %13

13:                                               ; preds = %57, %12
  %14 = load i32, ptr %5, align 4, !tbaa !14
  %15 = icmp slt i32 %14, 15
  br i1 %15, label %17, label %16

16:                                               ; preds = %13
  store i32 5, ptr %4, align 4
  call void @llvm.lifetime.end.p0(i64 4, ptr %5) #12
  br label %60

17:                                               ; preds = %13
  call void @llvm.lifetime.start.p0(i64 4, ptr %6) #12
  store i32 0, ptr %6, align 4, !tbaa !14
  br label %18

18:                                               ; preds = %53, %17
  %19 = load i32, ptr %6, align 4, !tbaa !14
  %20 = icmp slt i32 %19, 8
  br i1 %20, label %22, label %21

21:                                               ; preds = %18
  store i32 8, ptr %4, align 4
  call void @llvm.lifetime.end.p0(i64 4, ptr %6) #12
  br label %56

22:                                               ; preds = %18
  %23 = getelementptr inbounds nuw %"class.icu_77::RelativeDateTimeCacheData", ptr %7, i32 0, i32 2
  %24 = load i32, ptr %3, align 4, !tbaa !14
  %25 = sext i32 %24 to i64
  %26 = getelementptr inbounds [3 x [15 x [2 x [8 x ptr]]]], ptr %23, i64 0, i64 %25
  %27 = load i32, ptr %5, align 4, !tbaa !14
  %28 = sext i32 %27 to i64
  %29 = getelementptr inbounds [15 x [2 x [8 x ptr]]], ptr %26, i64 0, i64 %28
  %30 = getelementptr inbounds [2 x [8 x ptr]], ptr %29, i64 0, i64 0
  %31 = load i32, ptr %6, align 4, !tbaa !14
  %32 = sext i32 %31 to i64
  %33 = getelementptr inbounds [8 x ptr], ptr %30, i64 0, i64 %32
  %34 = load ptr, ptr %33, align 8, !tbaa !27
  %35 = icmp eq ptr %34, null
  br i1 %35, label %37, label %36

36:                                               ; preds = %22
  call void @_ZN6icu_7715SimpleFormatterD1Ev(ptr noundef nonnull align 8 dereferenceable(72) %34) #12
  call void @_ZN6icu_777UMemorydlEPv(ptr noundef %34) #12
  br label %37

37:                                               ; preds = %36, %22
  %38 = getelementptr inbounds nuw %"class.icu_77::RelativeDateTimeCacheData", ptr %7, i32 0, i32 2
  %39 = load i32, ptr %3, align 4, !tbaa !14
  %40 = sext i32 %39 to i64
  %41 = getelementptr inbounds [3 x [15 x [2 x [8 x ptr]]]], ptr %38, i64 0, i64 %40
  %42 = load i32, ptr %5, align 4, !tbaa !14
  %43 = sext i32 %42 to i64
  %44 = getelementptr inbounds [15 x [2 x [8 x ptr]]], ptr %41, i64 0, i64 %43
  %45 = getelementptr inbounds [2 x [8 x ptr]], ptr %44, i64 0, i64 1
  %46 = load i32, ptr %6, align 4, !tbaa !14
  %47 = sext i32 %46 to i64
  %48 = getelementptr inbounds [8 x ptr], ptr %45, i64 0, i64 %47
  %49 = load ptr, ptr %48, align 8, !tbaa !27
  %50 = icmp eq ptr %49, null
  br i1 %50, label %52, label %51

51:                                               ; preds = %37
  call void @_ZN6icu_7715SimpleFormatterD1Ev(ptr noundef nonnull align 8 dereferenceable(72) %49) #12
  call void @_ZN6icu_777UMemorydlEPv(ptr noundef %49) #12
  br label %52

52:                                               ; preds = %51, %37
  br label %53

53:                                               ; preds = %52
  %54 = load i32, ptr %6, align 4, !tbaa !14
  %55 = add nsw i32 %54, 1
  store i32 %55, ptr %6, align 4, !tbaa !14
  br label %18, !llvm.loop !29

56:                                               ; preds = %21
  br label %57

57:                                               ; preds = %56
  %58 = load i32, ptr %5, align 4, !tbaa !14
  %59 = add nsw i32 %58, 1
  store i32 %59, ptr %5, align 4, !tbaa !14
  br label %13, !llvm.loop !31

60:                                               ; preds = %16
  br label %61

61:                                               ; preds = %60
  %62 = load i32, ptr %3, align 4, !tbaa !14
  %63 = add nsw i32 %62, 1
  store i32 %63, ptr %3, align 4, !tbaa !14
  br label %8, !llvm.loop !32

64:                                               ; preds = %11
  %65 = getelementptr inbounds nuw %"class.icu_77::RelativeDateTimeCacheData", ptr %7, i32 0, i32 5
  %66 = load ptr, ptr %65, align 8, !tbaa !33
  %67 = icmp eq ptr %66, null
  br i1 %67, label %69, label %68

68:                                               ; preds = %64
  call void @_ZN6icu_7715SimpleFormatterD1Ev(ptr noundef nonnull align 8 dereferenceable(72) %66) #12
  call void @_ZN6icu_777UMemorydlEPv(ptr noundef %66) #12
  br label %69

69:                                               ; preds = %68, %64
  %70 = getelementptr inbounds nuw %"class.icu_77::RelativeDateTimeCacheData", ptr %7, i32 0, i32 3
  call void @_ZN6icu_7713UnicodeStringD1Ev(ptr noundef nonnull align 8 dereferenceable(64) %70) #12
  %71 = getelementptr inbounds nuw %"class.icu_77::RelativeDateTimeCacheData", ptr %7, i32 0, i32 1
  %72 = getelementptr inbounds [3 x [15 x [6 x %"class.icu_77::UnicodeString"]]], ptr %71, i32 0, i32 0, i32 0, i32 0
  %73 = getelementptr inbounds %"class.icu_77::UnicodeString", ptr %72, i64 270
  br label %74

74:                                               ; preds = %74, %69
  %75 = phi ptr [ %73, %69 ], [ %76, %74 ]
  %76 = getelementptr inbounds %"class.icu_77::UnicodeString", ptr %75, i64 -1
  call void @_ZN6icu_7713UnicodeStringD1Ev(ptr noundef nonnull align 8 dereferenceable(64) %76) #12
  %77 = icmp eq ptr %76, %72
  br i1 %77, label %78, label %74

78:                                               ; preds = %74
  call void @_ZN6icu_7712SharedObjectD2Ev(ptr noundef nonnull align 8 dereferenceable(24) %7) #12
  ret void
}