; Function Attrs: mustprogress nounwind uwtable
define void @_ZN6icu_7725RelativeDateTimeCacheDataD2Ev(ptr noundef nonnull align 8 dereferenceable(23152) initializes((0, 8)) %0) unnamed_addr #0 align 2 {
  store ptr getelementptr inbounds nuw inrange(-16, 24) (i8, ptr @_ZTVN6icu_7725RelativeDateTimeCacheDataE, i64 16), ptr %0, align 8, !tbaa !15
  %2 = getelementptr inbounds nuw i8, ptr %0, i64 17304
  br label %.preheader19

.preheader19:                                     ; preds = %1, %9
  %indvars.iv28 = phi i64 [ 0, %1 ], [ %indvars.iv.next29, %9 ]
  br label %.preheader

3:                                                ; preds = %9
  %4 = getelementptr inbounds nuw i8, ptr %0, i64 23144
  %5 = load ptr, ptr %4, align 8, !tbaa !17
  %6 = icmp eq ptr %5, null
  br i1 %6, label %23, label %22

.preheader:                                       ; preds = %.preheader19, %10
  %indvars.iv24 = phi i64 [ 0, %.preheader19 ], [ %indvars.iv.next25, %10 ]
  %7 = getelementptr inbounds nuw [3 x [15 x [2 x [8 x ptr]]]], ptr %2, i64 0, i64 %indvars.iv28, i64 %indvars.iv24
  %8 = getelementptr inbounds nuw i8, ptr %7, i64 64
  br label %11

9:                                                ; preds = %10
  %indvars.iv.next29 = add nuw nsw i64 %indvars.iv28, 1
  %exitcond31.not = icmp eq i64 %indvars.iv.next29, 3
  br i1 %exitcond31.not, label %3, label %.preheader19, !llvm.loop !27

10:                                               ; preds = %21
  %indvars.iv.next25 = add nuw nsw i64 %indvars.iv24, 1
  %exitcond27.not = icmp eq i64 %indvars.iv.next25, 15
  br i1 %exitcond27.not, label %9, label %.preheader, !llvm.loop !29

11:                                               ; preds = %.preheader, %21
  %indvars.iv = phi i64 [ 0, %.preheader ], [ %indvars.iv.next, %21 ]
  %12 = getelementptr inbounds nuw [8 x ptr], ptr %7, i64 0, i64 %indvars.iv
  %13 = load ptr, ptr %12, align 8, !tbaa !30
  %14 = icmp eq ptr %13, null
  br i1 %14, label %16, label %15

15:                                               ; preds = %11
  tail call void @_ZN6icu_7715SimpleFormatterD1Ev(ptr noundef nonnull align 8 dereferenceable(72) %13) #20
  tail call void @_ZN6icu_777UMemorydlEPv(ptr noundef nonnull %13) #20
  br label %16

16:                                               ; preds = %15, %11
  %17 = getelementptr inbounds nuw [8 x ptr], ptr %8, i64 0, i64 %indvars.iv
  %18 = load ptr, ptr %17, align 8, !tbaa !30
  %19 = icmp eq ptr %18, null
  br i1 %19, label %21, label %20

20:                                               ; preds = %16
  tail call void @_ZN6icu_7715SimpleFormatterD1Ev(ptr noundef nonnull align 8 dereferenceable(72) %18) #20
  tail call void @_ZN6icu_777UMemorydlEPv(ptr noundef nonnull %18) #20
  br label %21

21:                                               ; preds = %16, %20
  %indvars.iv.next = add nuw nsw i64 %indvars.iv, 1
  %exitcond.not = icmp eq i64 %indvars.iv.next, 8
  br i1 %exitcond.not, label %10, label %11, !llvm.loop !31

22:                                               ; preds = %3
  tail call void @_ZN6icu_7715SimpleFormatterD1Ev(ptr noundef nonnull align 8 dereferenceable(72) %5) #20
  tail call void @_ZN6icu_777UMemorydlEPv(ptr noundef nonnull %5) #20
  br label %23

23:                                               ; preds = %22, %3
  %24 = getelementptr inbounds nuw i8, ptr %0, i64 23064
  tail call void @_ZN6icu_7713UnicodeStringD1Ev(ptr noundef nonnull align 8 dereferenceable(64) %24) #20
  br label %25

25:                                               ; preds = %25, %23
  %.idx = phi i64 [ 17304, %23 ], [ %.add, %25 ]
  %.add = add nsw i64 %.idx, -64
  %.ptr17 = getelementptr inbounds i8, ptr %0, i64 %.add
  tail call void @_ZN6icu_7713UnicodeStringD1Ev(ptr noundef nonnull align 8 dereferenceable(64) %.ptr17) #20
  %26 = icmp eq i64 %.add, 24
  br i1 %26, label %27, label %25

27:                                               ; preds = %25
  tail call void @_ZN6icu_7712SharedObjectD2Ev(ptr noundef nonnull align 8 dereferenceable(24) %0) #20
  ret void
}